target datalayout = "e-m:e-p270:32:32-p271:32:32-p272:64:64-i64:64-i128:128-f80:128-n8:16:32:64-S128"
target triple = "x86_64-pc-linux-gnu"

%struct._zend_phar_globals = type { %struct._zend_array, %struct._zend_array, ptr, %struct._zend_array, i32, ptr, i8, i8, i8, i8, i8, i8, i8, i8, i8, i8, i8, i8, ptr, ptr, ptr, ptr, ptr, ptr, ptr, ptr, ptr, ptr, ptr, ptr, ptr, ptr, ptr, ptr, ptr, ptr, ptr, ptr, ptr, ptr, ptr, i32, i8, ptr, i32, ptr, i32, ptr, i32, ptr, %struct._zend_array }
%struct._zend_array = type { %struct._zend_refcounted_h, %union.anon.0, i32, %union.anon.1, i32, i32, i32, i32, i64, ptr }
%struct._zend_refcounted_h = type { i32, %union.anon }
%union.anon = type { i32 }
%union.anon.0 = type { i32 }
%union.anon.1 = type { ptr }
%struct._zend_executor_globals = type { %struct._zval_struct, %struct._zval_struct, [32 x ptr], ptr, ptr, %struct._zend_array, %struct._zend_array, ptr, i32, i8, %struct._zval_struct, i32, ptr, ptr, ptr, ptr, ptr, ptr, i64, ptr, ptr, i32, ptr, i32, i64, i32, i32, i32, i8, i8, %struct.zend_atomic_bool_s, %struct.zend_atomic_bool_s, ptr, i64, ptr, ptr, %struct._zend_array, %struct._zend_array, i32, i8, %struct._zval_struct, %struct._zval_struct, %struct._zend_stack, %struct._zend_stack, %struct._zend_stack, ptr, i32, i32, i64, ptr, ptr, ptr, %struct._zend_objects_store, %struct._zend_lazy_objects_store, ptr, ptr, ptr, [3 x %struct._zend_op], ptr, i8, i8, i64, i32, i32, ptr, [16 x %struct._HashTableIterator], ptr, %union._zend_function, %struct._zend_op, %struct._zend_array, i64, %struct.zend_get_gc_buffer, ptr, ptr, ptr, i64, i8, i32, ptr, ptr, i64, %struct._zend_call_stack, i64, i64, %struct._zend_strtod_state, [6 x ptr] }
%struct.zend_atomic_bool_s = type { i8 }
%struct._zval_struct = type { %union._zend_value, %union.anon.3, %union.anon.6 }
%union._zend_value = type { i64 }
%union.anon.3 = type { i32 }
%union.anon.6 = type { i32 }
%struct._zend_stack = type { i32, i32, i32, ptr }
%struct._zend_objects_store = type { ptr, i32, i32, i32 }
%struct._zend_lazy_objects_store = type { %struct._zend_array }
%struct._HashTableIterator = type { ptr, i32, i32 }
%union._zend_function = type { %struct._zend_op_array }
%struct._zend_op_array = type { i8, [3 x i8], i32, ptr, ptr, ptr, i32, i32, ptr, ptr, ptr, ptr, i32, ptr, i32, i32, i32, ptr, ptr, ptr, ptr, ptr, i32, i32, ptr, ptr, ptr, i32, i32, i32, i32, ptr, ptr, [6 x ptr] }
%struct._zend_op = type { ptr, %union._znode_op, %union._znode_op, %union._znode_op, i32, i32, i8, i8, i8, i8 }
%union._znode_op = type { i32 }
%struct.zend_get_gc_buffer = type { ptr, ptr, ptr }
%struct._zend_call_stack = type { ptr, i64 }
%struct._zend_strtod_state = type { [8 x ptr], ptr, ptr }
%struct.php_file_globals = type { i32, i64, i8, i64, ptr, ptr, ptr, ptr, ptr, ptr, ptr, i32, %struct.hostent, ptr, i64 }
%struct.hostent = type { ptr, ptr, i32, i32, ptr }
%struct._zend_execute_data = type { ptr, ptr, ptr, ptr, %struct._zval_struct, ptr, ptr, ptr, ptr }
%struct._zend_string = type { %struct._zend_refcounted_h, i64, i64, [1 x i8] }
%struct._php_stream = type { ptr, ptr, %struct._php_stream_filter_chain, %struct._php_stream_filter_chain, ptr, ptr, %struct._zval_struct, i16, [16 x i8], i32, ptr, ptr, ptr, ptr, i64, ptr, i64, i64, i64, i64, ptr }
%struct._php_stream_filter_chain = type { ptr, ptr, ptr }

@phar_globals = external global %struct._zend_phar_globals, align 8
@cached_phars = external global %struct._zend_array, align 8
@.str = private unnamed_addr constant [5 x i8] c"p|r!\00", align 1
@executor_globals = external global %struct._zend_executor_globals, align 8
@.str.1 = private unnamed_addr constant [4 x i8] c"://\00", align 1
@.str.2 = private unnamed_addr constant [8 x i8] c"phar://\00", align 1
@.str.3 = private unnamed_addr constant [12 x i8] c"phar://%s%s\00", align 1
@.str.4 = private unnamed_addr constant [13 x i8] c"phar://%s/%s\00", align 1
@.str.5 = private unnamed_addr constant [15 x i8] c"Stream-Context\00", align 1
@file_globals = external global %struct.php_file_globals, align 8

; Function Attrs: alwaysinline nounwind uwtable
define internal zeroext i1 @zend_string_starts_with_cstr_ci(ptr noundef %0, ptr noundef %1, i64 noundef %2) #2 {
  %4 = alloca ptr, align 8
  %5 = alloca ptr, align 8
  %6 = alloca i64, align 8
  store ptr %0, ptr %4, align 8, !tbaa !52
  store ptr %1, ptr %5, align 8, !tbaa !51
  store i64 %2, ptr %6, align 8, !tbaa !57
  %7 = load ptr, ptr %4, align 8, !tbaa !52
  %8 = getelementptr inbounds nuw %struct._zend_string, ptr %7, i32 0, i32 2
  %9 = load i64, ptr %8, align 8, !tbaa !53
  %10 = load i64, ptr %6, align 8, !tbaa !57
  %11 = icmp uge i64 %9, %10
  br i1 %11, label %12, label %21

12:                                               ; preds = %3
  %13 = load ptr, ptr %4, align 8, !tbaa !52
  %14 = getelementptr inbounds nuw %struct._zend_string, ptr %13, i32 0, i32 3
  %15 = getelementptr inbounds [1 x i8], ptr %14, i64 0, i64 0
  %16 = load ptr, ptr %5, align 8, !tbaa !51
  %17 = load i64, ptr %6, align 8, !tbaa !57
  %18 = call i32 @strncasecmp(ptr noundef %15, ptr noundef %16, i64 noundef %17) #12
  %19 = icmp ne i32 %18, 0
  %20 = xor i1 %19, true
  br label %21

21:                                               ; preds = %12, %3
  %22 = phi i1 [ false, %3 ], [ %20, %12 ]
  ret i1 %22
}

; Function Attrs: alwaysinline nounwind uwtable
define internal i32 @zend_hash_num_elements(ptr noundef %0) #2 {
  %2 = alloca ptr, align 8
  store ptr %0, ptr %2, align 8, !tbaa !74
  %3 = load ptr, ptr %2, align 8, !tbaa !74
  %4 = getelementptr inbounds nuw %struct._zend_array, ptr %3, i32 0, i32 5
  %5 = load i32, ptr %4, align 4, !tbaa !75
  ret i32 %5
}

; Function Attrs: nounwind uwtable
define hidden void @zif_phar_opendir(ptr noundef %0, ptr noundef %1) #0 {
  %3 = alloca ptr, align 8
  %4 = alloca ptr, align 8
  %5 = alloca ptr, align 8
  %6 = alloca i64, align 8
  %7 = alloca ptr, align 8
  %8 = alloca i32, align 4
  %9 = alloca ptr, align 8
  %10 = alloca ptr, align 8
  %11 = alloca i64, align 8
  %12 = alloca i64, align 8
  %13 = alloca ptr, align 8
  %14 = alloca ptr, align 8
  %15 = alloca ptr, align 8
  %16 = alloca ptr, align 8
  %17 = alloca ptr, align 8
  store ptr %0, ptr %3, align 8, !tbaa !4
  store ptr %1, ptr %4, align 8, !tbaa !9
  call void @llvm.lifetime.start.p0(i64 8, ptr %5) #11
  call void @llvm.lifetime.start.p0(i64 8, ptr %6) #11
  call void @llvm.lifetime.start.p0(i64 8, ptr %7) #11
  store ptr null, ptr %7, align 8, !tbaa !9
  %18 = load i8, ptr getelementptr inbounds nuw (%struct._zend_phar_globals, ptr @phar_globals, i32 0, i32 13), align 1, !tbaa !11, !range !21, !noundef !22
  %19 = trunc i8 %18 to i1
  br i1 %19, label %21, label %20

20:                                               ; preds = %2
  br label %156

21:                                               ; preds = %2
  %22 = load i32, ptr getelementptr inbounds nuw (%struct._zend_array, ptr getelementptr inbounds nuw (%struct._zend_phar_globals, ptr @phar_globals, i32 0, i32 1), i32 0, i32 1), align 8, !tbaa !23
  %23 = and i32 %22, 8
  %24 = icmp eq i32 %23, 0
  br i1 %24, label %25, label %33

25:                                               ; preds = %21
  %26 = call i32 @zend_hash_num_elements(ptr noundef getelementptr inbounds nuw (%struct._zend_phar_globals, ptr @phar_globals, i32 0, i32 1))
  %27 = icmp ne i32 %26, 0
  br i1 %27, label %33, label %28

28:                                               ; preds = %25
  %29 = load i32, ptr getelementptr inbounds nuw (%struct._zend_array, ptr @cached_phars, i32 0, i32 1), align 8, !tbaa !23
  %30 = and i32 %29, 8
  %31 = icmp eq i32 %30, 0
  br i1 %31, label %33, label %32

32:                                               ; preds = %28
  br label %156

33:                                               ; preds = %28, %25, %21
  %34 = load ptr, ptr %3, align 8, !tbaa !4
  %35 = getelementptr inbounds nuw %struct._zend_execute_data, ptr %34, i32 0, i32 4
  %36 = getelementptr inbounds nuw %struct._zval_struct, ptr %35, i32 0, i32 2
  %37 = load i32, ptr %36, align 4, !tbaa !23
  %38 = call i32 (i32, ptr, ...) @zend_parse_parameters(i32 noundef %37, ptr noundef @.str, ptr noundef %5, ptr noundef %6, ptr noundef %7)
  %39 = icmp eq i32 %38, -1
  br i1 %39, label %40, label %46

40:                                               ; preds = %33
  br label %41

41:                                               ; preds = %40
  %42 = load ptr, ptr getelementptr inbounds nuw (%struct._zend_executor_globals, ptr @executor_globals, i32 0, i32 54), align 8, !tbaa !24
  %43 = icmp ne ptr %42, null
  call void @llvm.assume(i1 %43)
  store i32 1, ptr %8, align 4
  br label %160

44:                                               ; No predecessors!
  br label %45

45:                                               ; preds = %44
  br label %46

46:                                               ; preds = %45, %33
  %47 = load ptr, ptr %5, align 8, !tbaa !51
  %48 = getelementptr inbounds i8, ptr %47, i64 0
  %49 = load i8, ptr %48, align 1, !tbaa !23
  %50 = sext i8 %49 to i32
  %51 = icmp eq i32 %50, 47
  br i1 %51, label %155, label %52

52:                                               ; preds = %46
  %53 = load ptr, ptr %5, align 8, !tbaa !51
  %54 = call ptr @strstr(ptr noundef %53, ptr noundef @.str.1) #12
  %55 = icmp ne ptr %54, null
  br i1 %55, label %155, label %56

56:                                               ; preds = %52
  call void @llvm.lifetime.start.p0(i64 8, ptr %9) #11
  call void @llvm.lifetime.start.p0(i64 8, ptr %10) #11
  call void @llvm.lifetime.start.p0(i64 8, ptr %11) #11
  call void @llvm.lifetime.start.p0(i64 8, ptr %12) #11
  call void @llvm.lifetime.start.p0(i64 8, ptr %13) #11
  %57 = call ptr @zend_get_executed_filename_ex()
  store ptr %57, ptr %13, align 8, !tbaa !52
  %58 = load ptr, ptr %13, align 8, !tbaa !52
  %59 = icmp ne ptr %58, null
  br i1 %59, label %60, label %63

60:                                               ; preds = %56
  %61 = load ptr, ptr %13, align 8, !tbaa !52
  %62 = call zeroext i1 @zend_string_starts_with_cstr_ci(ptr noundef %61, ptr noundef @.str.2, i64 noundef 7)
  br i1 %62, label %64, label %63

63:                                               ; preds = %60, %56
  store i32 2, ptr %8, align 4
  br label %152

64:                                               ; preds = %60
  %65 = load ptr, ptr %13, align 8, !tbaa !52
  %66 = getelementptr inbounds nuw %struct._zend_string, ptr %65, i32 0, i32 3
  %67 = getelementptr inbounds [1 x i8], ptr %66, i64 0, i64 0
  %68 = load ptr, ptr %13, align 8, !tbaa !52
  %69 = getelementptr inbounds nuw %struct._zend_string, ptr %68, i32 0, i32 2
  %70 = load i64, ptr %69, align 8, !tbaa !53
  %71 = call i32 @phar_split_fname(ptr noundef %67, i64 noundef %70, ptr noundef %9, ptr noundef %11, ptr noundef %10, ptr noundef %12, i32 noundef 2, i32 noundef 0)
  %72 = icmp eq i32 0, %71
  br i1 %72, label %73, label %151

73:                                               ; preds = %64
  call void @llvm.lifetime.start.p0(i64 8, ptr %14) #11
  store ptr null, ptr %14, align 8, !tbaa !55
  call void @llvm.lifetime.start.p0(i64 8, ptr %15) #11
  call void @llvm.lifetime.start.p0(i64 8, ptr %16) #11
  %74 = load ptr, ptr %10, align 8, !tbaa !51
  call void @_efree(ptr noundef %74)
  %75 = load ptr, ptr %5, align 8, !tbaa !51
  %76 = load i64, ptr %6, align 8, !tbaa !57
  %77 = call noalias ptr @_estrndup(ptr noundef %75, i64 noundef %76)
  store ptr %77, ptr %10, align 8, !tbaa !51
  %78 = load i64, ptr %6, align 8, !tbaa !57
  store i64 %78, ptr %12, align 8, !tbaa !57
  %79 = load ptr, ptr %10, align 8, !tbaa !51
  %80 = call ptr @phar_fix_filepath(ptr noundef %79, ptr noundef %12, i32 noundef 1)
  store ptr %80, ptr %10, align 8, !tbaa !51
  %81 = load ptr, ptr %10, align 8, !tbaa !51
  %82 = getelementptr inbounds i8, ptr %81, i64 0
  %83 = load i8, ptr %82, align 1, !tbaa !23
  %84 = sext i8 %83 to i32
  %85 = icmp eq i32 %84, 47
  br i1 %85, label %86, label %90

86:                                               ; preds = %73
  %87 = load ptr, ptr %9, align 8, !tbaa !51
  %88 = load ptr, ptr %10, align 8, !tbaa !51
  %89 = call i64 (ptr, i64, ptr, ...) @zend_spprintf(ptr noundef %16, i64 noundef 4096, ptr noundef @.str.3, ptr noundef %87, ptr noundef %88)
  br label %94

90:                                               ; preds = %73
  %91 = load ptr, ptr %9, align 8, !tbaa !51
  %92 = load ptr, ptr %10, align 8, !tbaa !51
  %93 = call i64 (ptr, i64, ptr, ...) @zend_spprintf(ptr noundef %16, i64 noundef 4096, ptr noundef @.str.4, ptr noundef %91, ptr noundef %92)
  br label %94

94:                                               ; preds = %90, %86
  %95 = load ptr, ptr %10, align 8, !tbaa !51
  call void @_efree(ptr noundef %95)
  %96 = load ptr, ptr %9, align 8, !tbaa !51
  call void @_efree(ptr noundef %96)
  %97 = load ptr, ptr %7, align 8, !tbaa !9
  %98 = icmp ne ptr %97, null
  br i1 %98, label %99, label %117

99:                                               ; preds = %94
  %100 = load ptr, ptr %7, align 8, !tbaa !9
  %101 = icmp ne ptr %100, null
  br i1 %101, label %102, label %106

102:                                              ; preds = %99
  %103 = load ptr, ptr %7, align 8, !tbaa !9
  %104 = call i32 @php_le_stream_context()
  %105 = call ptr @zend_fetch_resource_ex(ptr noundef %103, ptr noundef @.str.5, i32 noundef %104)
  br label %115

106:                                              ; preds = %99
  %107 = load ptr, ptr getelementptr inbounds nuw (%struct.php_file_globals, ptr @file_globals, i32 0, i32 7), align 8, !tbaa !58
  %108 = icmp ne ptr %107, null
  br i1 %108, label %109, label %111

109:                                              ; preds = %106
  %110 = load ptr, ptr getelementptr inbounds nuw (%struct.php_file_globals, ptr @file_globals, i32 0, i32 7), align 8, !tbaa !58
  br label %113

111:                                              ; preds = %106
  %112 = call ptr @php_stream_context_alloc()
  store ptr %112, ptr getelementptr inbounds nuw (%struct.php_file_globals, ptr @file_globals, i32 0, i32 7), align 8, !tbaa !58
  br label %113

113:                                              ; preds = %111, %109
  %114 = phi ptr [ %110, %109 ], [ %112, %111 ]
  br label %115

115:                                              ; preds = %113, %102
  %116 = phi ptr [ %105, %102 ], [ %114, %113 ]
  store ptr %116, ptr %14, align 8, !tbaa !55
  br label %117

117:                                              ; preds = %115, %94
  %118 = load ptr, ptr %16, align 8, !tbaa !51
  %119 = load ptr, ptr %14, align 8, !tbaa !55
  %120 = call ptr @_php_stream_opendir(ptr noundef %118, i32 noundef 8, ptr noundef %119)
  store ptr %120, ptr %15, align 8, !tbaa !62
  %121 = load ptr, ptr %16, align 8, !tbaa !51
  call void @_efree(ptr noundef %121)
  %122 = load ptr, ptr %15, align 8, !tbaa !62
  %123 = icmp ne ptr %122, null
  br i1 %123, label %133, label %124

124:                                              ; preds = %117
  br label %125

125:                                              ; preds = %124
  br label %126

126:                                              ; preds = %125
  %127 = load ptr, ptr %4, align 8, !tbaa !9
  %128 = getelementptr inbounds nuw %struct._zval_struct, ptr %127, i32 0, i32 1
  store i32 2, ptr %128, align 8, !tbaa !23
  br label %129

129:                                              ; preds = %126
  br label %130

130:                                              ; preds = %129
  store i32 1, ptr %8, align 4
  br label %150

131:                                              ; No predecessors!
  br label %132

132:                                              ; preds = %131
  br label %133

133:                                              ; preds = %132, %117
  br label %134

134:                                              ; preds = %133
  call void @llvm.lifetime.start.p0(i64 8, ptr %17) #11
  %135 = load ptr, ptr %4, align 8, !tbaa !9
  store ptr %135, ptr %17, align 8, !tbaa !9
  %136 = load ptr, ptr %15, align 8, !tbaa !62
  %137 = getelementptr inbounds nuw %struct._php_stream, ptr %136, i32 0, i32 10
  %138 = load ptr, ptr %137, align 8, !tbaa !64
  %139 = load ptr, ptr %17, align 8, !tbaa !9
  %140 = getelementptr inbounds nuw %struct._zval_struct, ptr %139, i32 0, i32 0
  store ptr %138, ptr %140, align 8, !tbaa !23
  %141 = load ptr, ptr %17, align 8, !tbaa !9
  %142 = getelementptr inbounds nuw %struct._zval_struct, ptr %141, i32 0, i32 1
  store i32 265, ptr %142, align 8, !tbaa !23
  call void @llvm.lifetime.end.p0(i64 8, ptr %17) #11
  br label %143

143:                                              ; preds = %134
  br label %144

144:                                              ; preds = %143
  %145 = load ptr, ptr %15, align 8, !tbaa !62
  %146 = getelementptr inbounds nuw %struct._php_stream, ptr %145, i32 0, i32 7
  %147 = load i16, ptr %146, align 8
  %148 = and i16 %147, -17
  %149 = or i16 %148, 16
  store i16 %149, ptr %146, align 8
  store i32 1, ptr %8, align 4
  br label %150

150:                                              ; preds = %144, %130
  call void @llvm.lifetime.end.p0(i64 8, ptr %16) #11
  call void @llvm.lifetime.end.p0(i64 8, ptr %15) #11
  call void @llvm.lifetime.end.p0(i64 8, ptr %14) #11
  br label %152

151:                                              ; preds = %64
  store i32 0, ptr %8, align 4
  br label %152

152:                                              ; preds = %63, %151, %150
  call void @llvm.lifetime.end.p0(i64 8, ptr %13) #11
  call void @llvm.lifetime.end.p0(i64 8, ptr %12) #11
  call void @llvm.lifetime.end.p0(i64 8, ptr %11) #11
  call void @llvm.lifetime.end.p0(i64 8, ptr %10) #11
  call void @llvm.lifetime.end.p0(i64 8, ptr %9) #11
  %153 = load i32, ptr %8, align 4
  switch i32 %153, label %160 [
    i32 0, label %154
    i32 2, label %156
  ]

154:                                              ; preds = %152
  br label %155

155:                                              ; preds = %154, %52, %46
  br label %156

156:                                              ; preds = %155, %152, %32, %20
  %157 = load ptr, ptr getelementptr inbounds nuw (%struct._zend_phar_globals, ptr @phar_globals, i32 0, i32 23), align 8, !tbaa !73
  %158 = load ptr, ptr %3, align 8, !tbaa !4
  %159 = load ptr, ptr %4, align 8, !tbaa !9
  call void %157(ptr noundef %158, ptr noundef %159)
  store i32 1, ptr %8, align 4
  br label %160

160:                                              ; preds = %156, %152, %41
  call void @llvm.lifetime.end.p0(i64 8, ptr %7) #11
  call void @llvm.lifetime.end.p0(i64 8, ptr %6) #11
  call void @llvm.lifetime.end.p0(i64 8, ptr %5) #11
  ret void
}