; Function Attrs: nounwind uwtable
define hidden void @zif_phar_opendir(ptr noundef %0, ptr noundef %1) #0 {
  %3 = alloca ptr, align 8
  %4 = alloca i64, align 8
  %5 = alloca ptr, align 8
  %6 = alloca ptr, align 8
  %7 = alloca ptr, align 8
  %8 = alloca i64, align 8
  %9 = alloca i64, align 8
  %10 = alloca ptr, align 8
  call void @llvm.lifetime.start.p0(i64 8, ptr nonnull %3) #12
  call void @llvm.lifetime.start.p0(i64 8, ptr nonnull %4) #12
  call void @llvm.lifetime.start.p0(i64 8, ptr nonnull %5) #12
  store ptr null, ptr %5, align 8, !tbaa !4
  %11 = load i8, ptr getelementptr inbounds nuw (i8, ptr @phar_globals, i64 199), align 1, !tbaa !9, !range !19, !noundef !20
  %12 = trunc nuw i8 %11 to i1
  br i1 %12, label %13, label %78

13:                                               ; preds = %2
  %14 = load i32, ptr getelementptr inbounds nuw (i8, ptr @phar_globals, i64 64), align 8, !tbaa !21
  %15 = and i32 %14, 8
  %16 = icmp eq i32 %15, 0
  %17 = load i32, ptr getelementptr inbounds nuw (i8, ptr @phar_globals, i64 84), align 4
  %.not = icmp eq i32 %17, 0
  %or.cond = select i1 %16, i1 %.not, i1 false
  br i1 %or.cond, label %18, label %22

18:                                               ; preds = %13
  %19 = load i32, ptr getelementptr inbounds nuw (i8, ptr @cached_phars, i64 8), align 8, !tbaa !21
  %20 = and i32 %19, 8
  %21 = icmp eq i32 %20, 0
  br i1 %21, label %22, label %78

22:                                               ; preds = %18, %13
  %23 = getelementptr inbounds nuw i8, ptr %0, i64 44
  %24 = load i32, ptr %23, align 4, !tbaa !21
  %25 = call i32 (i32, ptr, ...) @zend_parse_parameters(i32 noundef %24, ptr noundef nonnull @.str, ptr noundef nonnull %3, ptr noundef nonnull %4, ptr noundef nonnull %5) #12
  %26 = icmp eq i32 %25, -1
  br i1 %26, label %27, label %30

27:                                               ; preds = %22
  %28 = load ptr, ptr getelementptr inbounds nuw (i8, ptr @executor_globals, i64 960), align 8, !tbaa !22
  %29 = icmp ne ptr %28, null
  call void @llvm.assume(i1 %29)
  br label %80

30:                                               ; preds = %22
  %31 = load ptr, ptr %3, align 8, !tbaa !50
  %32 = load i8, ptr %31, align 1, !tbaa !21
  %33 = icmp eq i8 %32, 47
  br i1 %33, label %78, label %34

34:                                               ; preds = %30
  %35 = call ptr @strstr(ptr noundef nonnull dereferenceable(1) %31, ptr noundef nonnull dereferenceable(1) @.str.1) #13
  %.not20 = icmp eq ptr %35, null
  br i1 %.not20, label %36, label %78

36:                                               ; preds = %34
  call void @llvm.lifetime.start.p0(i64 8, ptr nonnull %6) #12
  call void @llvm.lifetime.start.p0(i64 8, ptr nonnull %7) #12
  call void @llvm.lifetime.start.p0(i64 8, ptr nonnull %8) #12
  call void @llvm.lifetime.start.p0(i64 8, ptr nonnull %9) #12
  %37 = call ptr @zend_get_executed_filename_ex() #12
  %.not21 = icmp eq ptr %37, null
  br i1 %.not21, label %.thread, label %38

38:                                               ; preds = %36
  %39 = getelementptr inbounds nuw i8, ptr %37, i64 16
  %40 = load i64, ptr %39, align 8, !tbaa !51
  %41 = icmp ugt i64 %40, 6
  br i1 %41, label %zend_string_starts_with_cstr_ci.exit, label %.thread

zend_string_starts_with_cstr_ci.exit:             ; preds = %38
  %42 = getelementptr inbounds nuw i8, ptr %37, i64 24
  %43 = call i32 @strncasecmp(ptr noundef nonnull %42, ptr noundef nonnull @.str.2, i64 noundef 7) #13
  %.not.i = icmp eq i32 %43, 0
  br i1 %.not.i, label %44, label %.thread

44:                                               ; preds = %zend_string_starts_with_cstr_ci.exit
  %45 = call i32 @phar_split_fname(ptr noundef nonnull %42, i64 noundef %40, ptr noundef nonnull %6, ptr noundef nonnull %8, ptr noundef nonnull %7, ptr noundef nonnull %9, i32 noundef 2, i32 noundef 0) #12
  %46 = icmp eq i32 %45, 0
  br i1 %46, label %47, label %.thread

47:                                               ; preds = %44
  call void @llvm.lifetime.start.p0(i64 8, ptr nonnull %10) #12
  %48 = load ptr, ptr %7, align 8, !tbaa !50
  call void @_efree(ptr noundef %48) #12
  %49 = load ptr, ptr %3, align 8, !tbaa !50
  %50 = load i64, ptr %4, align 8, !tbaa !53
  %51 = call noalias ptr @_estrndup(ptr noundef %49, i64 noundef %50) #12
  store ptr %51, ptr %7, align 8, !tbaa !50
  %52 = load i64, ptr %4, align 8, !tbaa !53
  store i64 %52, ptr %9, align 8, !tbaa !53
  %53 = call ptr @phar_fix_filepath(ptr noundef %51, ptr noundef nonnull %9, i32 noundef 1) #12
  store ptr %53, ptr %7, align 8, !tbaa !50
  %54 = load i8, ptr %53, align 1, !tbaa !21
  %55 = icmp eq i8 %54, 47
  %56 = load ptr, ptr %6, align 8, !tbaa !50
  %.str.3..str.4 = select i1 %55, ptr @.str.3, ptr @.str.4
  %57 = call i64 (ptr, i64, ptr, ...) @zend_spprintf(ptr noundef nonnull %10, i64 noundef 4096, ptr noundef nonnull %.str.3..str.4, ptr noundef %56, ptr noundef nonnull %53) #12
  %58 = load ptr, ptr %7, align 8, !tbaa !50
  call void @_efree(ptr noundef %58) #12
  %59 = load ptr, ptr %6, align 8, !tbaa !50
  call void @_efree(ptr noundef %59) #12
  %60 = load ptr, ptr %5, align 8, !tbaa !4
  %.not22 = icmp eq ptr %60, null
  br i1 %.not22, label %64, label %61

61:                                               ; preds = %47
  %62 = call i32 @php_le_stream_context() #12
  %63 = call ptr @zend_fetch_resource_ex(ptr noundef nonnull %60, ptr noundef nonnull @.str.5, i32 noundef %62) #12
  br label %64

64:                                               ; preds = %61, %47
  %.015 = phi ptr [ %63, %61 ], [ null, %47 ]
  %65 = load ptr, ptr %10, align 8, !tbaa !50
  %66 = call ptr @_php_stream_opendir(ptr noundef %65, i32 noundef 8, ptr noundef %.015) #12
  %67 = load ptr, ptr %10, align 8, !tbaa !50
  call void @_efree(ptr noundef %67) #12
  %.not23 = icmp eq ptr %66, null
  br i1 %.not23, label %68, label %70

68:                                               ; preds = %64
  %69 = getelementptr inbounds nuw i8, ptr %1, i64 8
  store i32 2, ptr %69, align 8, !tbaa !21
  br label %77

70:                                               ; preds = %64
  %71 = getelementptr inbounds nuw i8, ptr %66, i64 120
  %72 = load ptr, ptr %71, align 8, !tbaa !54
  store ptr %72, ptr %1, align 8, !tbaa !21
  %73 = getelementptr inbounds nuw i8, ptr %1, i64 8
  store i32 265, ptr %73, align 8, !tbaa !21
  %74 = getelementptr inbounds nuw i8, ptr %66, i64 96
  %75 = load i16, ptr %74, align 8
  %76 = or i16 %75, 16
  store i16 %76, ptr %74, align 8
  br label %77

.thread:                                          ; preds = %zend_string_starts_with_cstr_ci.exit, %36, %44, %38
  call void @llvm.lifetime.end.p0(i64 8, ptr nonnull %9) #12
  call void @llvm.lifetime.end.p0(i64 8, ptr nonnull %8) #12
  call void @llvm.lifetime.end.p0(i64 8, ptr nonnull %7) #12
  call void @llvm.lifetime.end.p0(i64 8, ptr nonnull %6) #12
  br label %78

77:                                               ; preds = %68, %70
  call void @llvm.lifetime.end.p0(i64 8, ptr nonnull %10) #12
  call void @llvm.lifetime.end.p0(i64 8, ptr nonnull %9) #12
  call void @llvm.lifetime.end.p0(i64 8, ptr nonnull %8) #12
  call void @llvm.lifetime.end.p0(i64 8, ptr nonnull %7) #12
  call void @llvm.lifetime.end.p0(i64 8, ptr nonnull %6) #12
  br label %80

78:                                               ; preds = %.thread, %30, %34, %18, %2
  %79 = load ptr, ptr getelementptr inbounds nuw (i8, ptr @phar_globals, i64 248), align 8, !tbaa !64
  call void %79(ptr noundef %0, ptr noundef %1) #12
  br label %80

80:                                               ; preds = %77, %78, %27
  call void @llvm.lifetime.end.p0(i64 8, ptr nonnull %5) #12
  call void @llvm.lifetime.end.p0(i64 8, ptr nonnull %4) #12
  call void @llvm.lifetime.end.p0(i64 8, ptr nonnull %3) #12
  ret void
}